
Memory Configuration

Name             Origin             Length             Attributes
RAM              0x0000000020000000 0x0000000000005000 xrw
FLASH            0x0000000008000000 0x0000000000010000 xr
*default*        0x0000000000000000 0xffffffffffffffff

Linker script and memory map

                0x0000000000000100                _Min_Heap_Size = 0x100
                0x0000000000000400                _Min_Stack_Size = 0x400
                0x0000000020005000                _estack = (ORIGIN (RAM) + LENGTH (RAM))

.isr_vector     0x0000000008000000      0x12c
                0x0000000008000000                . = ALIGN (0x4)
 *(.isr_vector)
 .isr_vector    0x0000000008000000      0x12c startup_stm32f10x.o
                0x0000000008000000                Vector_Table
                0x000000000800012c                . = ALIGN (0x4)

.text           0x000000000800012c       0x20
                0x000000000800012c                . = ALIGN (0x4)
 *(.text)
 .text          0x000000000800012c       0x18 startup_stm32f10x.o
                0x000000000800012c                Reset_Handler
                0x0000000008000138                RTC_Alarm_IRQHandler
                0x0000000008000138                EXTI2_IRQHandler
                0x0000000008000138                TIM8_TRG_COM_IRQHandler
                0x0000000008000138                TIM8_CC_IRQHandler
                0x0000000008000138                DebugMon_Handler
                0x0000000008000138                TIM1_CC_IRQHandler
                0x0000000008000138                HardFault_Handler
                0x0000000008000138                TIM6_IRQHandler
                0x0000000008000138                SysTick_Handler
                0x0000000008000138                PVD_IRQHandler
                0x0000000008000138                SDIO_IRQHandler
                0x0000000008000138                TAMP_STAMP_IRQHandler
                0x0000000008000138                PendSV_Handler
                0x0000000008000138                NMI_Handler
                0x0000000008000138                EXTI3_IRQHandler
                0x0000000008000138                TIM1_UP_TIM10_IRQHandler
                0x0000000008000138                USB_HP_CAN_TX_IRQHandler
                0x0000000008000138                EXTI0_IRQHandler
                0x0000000008000138                I2C2_EV_IRQHandler
                0x0000000008000138                UsageFault_Handler
                0x0000000008000138                ADC1_2_IRQHandler
                0x0000000008000138                SPI1_IRQHandler
                0x0000000008000138                CAN_SCE_IRQHandler
                0x0000000008000138                TIM1_BRK_TIM9_IRQHandler
                0x0000000008000138                TIM8_UP_IRQHandler
                0x0000000008000138                DMA2_Channel2_IRQHandler
                0x0000000008000138                DMA1_Channel4_IRQHandler
                0x0000000008000138                USART3_IRQHandler
                0x0000000008000138                DMA1_Channel7_IRQHandler
                0x0000000008000138                ADC3_IRQHandler
                0x0000000008000138                TIM4_IRQHandler
                0x0000000008000138                CAN_RX1_IRQHandler
                0x0000000008000138                DMA2_Channel1_IRQHandler
                0x0000000008000138                USB_Wakeup_IRQHandler
                0x0000000008000138                I2C1_EV_IRQHandler
                0x0000000008000138                DMA1_Channel6_IRQHandler
                0x0000000008000138                UART4_IRQHandler
                0x0000000008000138                TIM3_IRQHandler
                0x0000000008000138                RCC_IRQHandler
                0x0000000008000138                DMA1_Channel1_IRQHandler
                0x0000000008000138                Default_Handler
                0x0000000008000138                EXTI15_10_IRQHandler
                0x0000000008000138                TIM7_IRQHandler
                0x0000000008000138                TIM5_IRQHandler
                0x0000000008000138                EXTI9_5_IRQHandler
                0x0000000008000138                RTC_WKUP_IRQHandler
                0x0000000008000138                SPI2_IRQHandler
                0x0000000008000138                USB_LP_CAN_RX0_IRQHandler
                0x0000000008000138                MemManage_Handler
                0x0000000008000138                SVC_Handler
                0x0000000008000138                DMA1_Channel5_IRQHandler
                0x0000000008000138                EXTI4_IRQHandler
                0x0000000008000138                DMA1_Channel3_IRQHandler
                0x0000000008000138                FSMC_IRQHandler
                0x0000000008000138                WWDG_IRQHandler
                0x0000000008000138                TIM2_IRQHandler
                0x0000000008000138                TIM1_TRG_COM_TIM11_IRQHandler
                0x0000000008000138                EXTI1_IRQHandler
                0x0000000008000138                DMA2_Channel4_5_IRQHandler
                0x0000000008000138                USART2_IRQHandler
                0x0000000008000138                I2C2_ER_IRQHandler
                0x0000000008000138                DMA1_Channel2_IRQHandler
                0x0000000008000138                TIM8_BRK_IRQHandler
                0x0000000008000138                FLASH_IRQHandler
                0x0000000008000138                BusFault_Handler
                0x0000000008000138                USART1_IRQHandler
                0x0000000008000138                SPI3_IRQHandler
                0x0000000008000138                I2C1_ER_IRQHandler
                0x0000000008000138                DMA2_Channel3_IRQHandler
 .text          0x0000000008000144        0x6 Application.o
                0x0000000008000144                main
 *(.text*)
                0x000000000800014c                . = ALIGN (0x4)
 *fill*         0x000000000800014a        0x2 
                0x000000000800014c                _etext = .

.glue_7         0x000000000800014c        0x0
 .glue_7        0x000000000800014c        0x0 linker stubs

.glue_7t        0x000000000800014c        0x0
 .glue_7t       0x000000000800014c        0x0 linker stubs

.vfp11_veneer   0x000000000800014c        0x0
 .vfp11_veneer  0x000000000800014c        0x0 linker stubs

.v4_bx          0x000000000800014c        0x0
 .v4_bx         0x000000000800014c        0x0 linker stubs

.iplt           0x000000000800014c        0x0
 .iplt          0x000000000800014c        0x0 startup_stm32f10x.o

.rodata         0x000000000800014c        0x4
                0x000000000800014c                . = ALIGN (0x4)
 *(.rodata)
 .rodata        0x000000000800014c        0x4 startup_stm32f10x.o
                0x000000000800014c                MSP_Value
 *(.rodata*)
                0x0000000008000150                . = ALIGN (0x4)

.rel.dyn        0x0000000008000150        0x0
 .rel.iplt      0x0000000008000150        0x0 startup_stm32f10x.o

.data           0x0000000020000000        0x0 load address 0x0000000008000150
                0x0000000020000000                . = ALIGN (0x4)
                0x0000000020000000                _sdata = .
 *(.data)
 .data          0x0000000020000000        0x0 startup_stm32f10x.o
 .data          0x0000000020000000        0x0 Application.o
 *(.data*)
                0x0000000020000000                . = ALIGN (0x4)
                0x0000000020000000                _edata = .

.igot.plt       0x0000000020000000        0x0 load address 0x0000000008000150
 .igot.plt      0x0000000020000000        0x0 startup_stm32f10x.o

.bss            0x0000000020000000        0x0 load address 0x0000000008000150
                0x0000000020000000                . = ALIGN (0x4)
                0x0000000020000000                _sbss = .
 *(.bss)
 .bss           0x0000000020000000        0x0 startup_stm32f10x.o
 .bss           0x0000000020000000        0x0 Application.o
 *(.bss*)
                0x0000000020000000                . = ALIGN (0x4)
                0x0000000020000000                _ebss = .

._user_heap_stack
                0x0000000020000000      0x500 load address 0x0000000008000150
                0x0000000020000000                . = ALIGN (0x8)
                0x0000000020000100                . = (. + _Min_Heap_Size)
 *fill*         0x0000000020000000      0x100 
                0x0000000020000500                . = (. + _Min_Stack_Size)
 *fill*         0x0000000020000100      0x400 
                0x0000000020000500                . = ALIGN (0x8)
LOAD startup_stm32f10x.o
LOAD Application.o
OUTPUT(startup_stm32f10x.elf elf32-littlearm)
LOAD linker stubs

.comment        0x0000000000000000       0x33
 .comment       0x0000000000000000       0x33 startup_stm32f10x.o
                                         0x34 (size before relaxing)
 .comment       0x0000000000000033       0x34 Application.o

.ARM.attributes
                0x0000000000000000       0x2d
 .ARM.attributes
                0x0000000000000000       0x2d startup_stm32f10x.o
 .ARM.attributes
                0x000000000000002d       0x2d Application.o
